(lp0
(lp1
I55
aI106
aI0
aI99
aI255
aI255
aI28
aI107
aI145
aI164
aa(lp2
I5
aI183
aI44
aI109
aI255
aI255
aI15
aI149
aI255
aI228
aa(lp3
I150
aI118
aI0
aI217
aI255
aI191
aI137
aI111
aI223
aI154
aa(lp4
I21
aI50
aI5
aI51
aI192
aI238
aI72
aI58
aI165
aI113
aa.